(dp0
S'201122112'
p1
((lp2
(lp3
I-10
atp4
sS'100121122'
p5
((lp6
I1
aI2
a(lp7
I-10
aI10
atp8
sS'100011222'
p9
((lp10
I1
aI2
aI3
a(lp11
I10
aI-10
aI10
atp12
sS'101211222'
p13
((lp14
I1
a(lp15
I10
atp16
sS'200212011'
p17
((lp18
I1
aI2
aI6
a(lp19
I10
aI-10
aI-10
atp20
sS'102211122'
p21
((lp22
I1
a(lp23
I10
atp24
sS'101120202'
p25
((lp26
I1
aI5
aI7
a(lp27
I10
aI10
aI10
atp28
sS'200201101'
p29
((lp30
I1
aI2
aI4
aI7
a(lp31
I10
aI10
aI10
aI-10
atp32
sS'010211220'
p33
((lp34
I0
aI2
aI8
a(lp35
I10
aI-10
aI-10
atp36
sS'201112012'
p37
((lp38
I1
aI6
a(lp39
I-10
aI10
atp40
sS'111211222'
p41
((lp42
(lp43
I10
atp44
sS'011112022'
p45
((lp46
(lp47
I10
atp48
sS'200001121'
p49
((lp50
I1
aI2
aI3
aI4
a(lp51
I0
aI0
aI-10
aI0
atp52
sS'200001120'
p53
((lp54
I1
aI2
aI3
aI4
aI8
a(lp55
I-10
aI-10
aI0
aI-10
aI-10
atp56
sS'200102011'
p57
((lp58
I1
aI2
aI4
aI6
a(lp59
I-10
aI10
aI10
aI10
atp60
sS'200102010'
p61
((lp62
I1
aI2
aI4
aI6
aI8
a(lp63
I10
aI-10
aI-10
aI-10
aI-10
atp64
sS'001010212'
p65
((lp66
I0
aI1
aI3
aI5
a(lp67
I10
aI10
aI0
aI10
atp68
sS'201212121'
p69
((lp70
(lp71
I-10
atp72
sS'000122112'
p73
((lp74
I0
aI1
aI2
a(lp75
I10
aI-10
aI-10
atp76
sS'100211212'
p77
((lp78
I1
aI2
a(lp79
I0
aI10
atp80
sS'001011222'
p81
((lp82
I0
aI1
aI3
a(lp83
I-10
aI10
aI10
atp84
sS'001122121'
p85
((lp86
I0
aI1
a(lp87
I10
aI10
atp88
sS'001020102'
p89
((lp90
I0
aI1
aI3
aI5
aI7
a(lp91
I10
aI-10
aI-10
aI-10
aI-10
atp92
sS'101201221'
p93
((lp94
I1
aI4
a(lp95
I10
aI10
atp96
sS'201102102'
p97
((lp98
I1
aI4
aI7
a(lp99
I10
aI-10
aI-10
atp100
sS'000210201'
p101
((lp102
I0
aI1
aI2
aI5
aI7
a(lp103
I10
aI10
aI0
aI-10
aI10
atp104
sS'000000021'
p105
((lp106
I0
aI1
aI2
aI3
aI4
aI5
aI6
a(lp107
I0
aI-10
aI-10
aI0
aI-10
aI0
aI0
atp108
sS'000201021'
p109
((lp110
I0
aI1
aI2
aI4
aI6
a(lp111
I10
aI-10
aI-10
aI-10
aI-10
atp112
sS'000211012'
p113
((lp114
I0
aI1
aI2
aI6
a(lp115
I10
aI10
aI10
aI0
atp116
sS'210112012'
p117
((lp118
I2
aI6
a(lp119
I0
aI10
atp120
sS'100120201'
p121
((lp122
I1
aI2
aI5
aI7
a(lp123
I10
aI10
aI10
aI0
atp124
sS'100122120'
p125
((lp126
I1
aI2
aI8
a(lp127
I0
aI10
aI0
atp128
sS'210201112'
p129
((lp130
(lp131
I10
atp132
sS'110202211'
p133
((lp134
(lp135
I10
atp136
sS'100202101'
p137
((lp138
I1
aI2
aI4
aI7
a(lp139
I10
aI10
aI-10
aI10
atp140
sS'000102001'
p141
((lp142
I0
aI1
aI2
aI4
aI6
aI7
a(lp143
I10
aI10
aI10
aI10
aI10
aI0
atp144
sS'211111222'
p145
((lp146
(lp147
I10
atp148
sS'200100112'
p149
((lp150
I1
aI2
aI4
aI5
a(lp151
I10
aI10
aI-10
aI-10
atp152
sS'200120101'
p153
((lp154
I1
aI2
aI5
aI7
a(lp155
I0
aI10
aI10
aI0
atp156
sS'001211212'
p157
((lp158
I0
aI1
a(lp159
I0
aI0
atp160
sS'200201211'
p161
((lp162
I1
aI2
aI4
a(lp163
I10
aI0
aI-10
atp164
sS'000010212'
p165
((lp166
I0
aI1
aI2
aI3
aI5
a(lp167
I0
aI0
aI0
aI10
aI0
atp168
sS'000002121'
p169
((lp170
I0
aI1
aI2
aI3
aI4
a(lp171
I10
aI-10
aI-10
aI0
aI-10
atp172
sS'000001002'
p173
((lp174
I0
aI1
aI2
aI3
aI4
aI6
aI7
a(lp175
I10
aI0
aI0
aI10
aI0
aI-10
aI10
atp176
sS'200112120'
p177
((lp178
I1
aI2
aI8
a(lp179
I0
aI-10
aI-10
atp180
sS'010101022'
p181
((lp182
I0
aI2
aI4
aI6
a(lp183
I10
aI10
aI10
aI10
atp184
sS'100000102'
p185
((lp186
I1
aI2
aI3
aI4
aI5
aI7
a(lp187
I10
aI10
aI10
aI10
aI10
aI10
atp188
sS'010102020'
p189
((lp190
I0
aI2
aI4
aI6
aI8
a(lp191
I-10
aI10
aI-10
aI0
aI-10
atp192
sS'200102121'
p193
((lp194
I1
aI2
aI4
a(lp195
I0
aI-10
aI-10
atp196
sS'200010001'
p197
((lp198
I1
aI2
aI3
aI5
aI6
aI7
a(lp199
I-10
aI-10
aI-10
aI-10
aI-10
aI-10
atp200
sS'200110020'
p201
((lp202
I1
aI2
aI5
aI6
aI8
a(lp203
I10
aI10
aI10
aI0
aI-10
atp204
sS'100010212'
p205
((lp206
I1
aI2
aI3
aI5
a(lp207
I10
aI10
aI0
aI10
atp208
sS'001121221'
p209
((lp210
I0
aI1
a(lp211
I10
aI0
atp212
sS'101202012'
p213
((lp214
I1
aI4
aI6
a(lp215
I-10
aI0
aI10
atp216
sS'201012102'
p217
((lp218
I1
aI3
aI7
a(lp219
I0
aI-10
aI-10
atp220
sS'100020102'
p221
((lp222
I1
aI2
aI3
aI5
aI7
a(lp223
I10
aI10
aI10
aI10
aI10
atp224
sS'201111202'
p225
((lp226
(lp227
I10
atp228
sS'000111022'
p229
((lp230
(lp231
I10
atp232
sS'201112122'
p233
((lp234
I1
a(lp235
I10
atp236
sS'100220211'
p237
((lp238
I1
aI2
aI5
a(lp239
I10
aI-10
aI0
atp240
sS'101122021'
p241
((lp242
I1
aI6
a(lp243
I10
aI-10
atp244
sS'000120102'
p245
((lp246
I0
aI1
aI2
aI5
aI7
a(lp247
I10
aI-10
aI-10
aI-10
aI-10
atp248
sS'100221201'
p249
((lp250
I1
aI2
aI7
a(lp251
I10
aI0
aI0
atp252
sS'201101212'
p253
((lp254
I1
aI4
a(lp255
I10
aI-10
atp256
sS'200101221'
p257
((lp258
I1
aI2
aI4
a(lp259
I-10
aI10
aI10
atp260
sS'200120211'
p261
((lp262
I1
aI2
aI5
a(lp263
I10
aI0
aI-10
atp264
sS'200110122'
p265
((lp266
I1
aI2
aI5
a(lp267
I10
aI-10
aI10
atp268
sS'200110120'
p269
((lp270
I1
aI2
aI5
aI8
a(lp271
I10
aI10
aI0
aI10
atp272
sS'101212212'
p273
((lp274
I1
a(lp275
I0
atp276
sS'000002011'
p277
((lp278
I0
aI1
aI2
aI3
aI4
aI6
a(lp279
I10
aI10
aI10
aI10
aI10
aI10
atp280
sS'010211221'
p281
((lp282
I0
aI2
a(lp283
I-10
aI10
atp284
sS'201011221'
p285
((lp286
I1
aI3
a(lp287
I10
aI-10
atp288
sS'011202121'
p289
((lp290
I0
aI4
a(lp291
I-10
aI-10
atp292
sS'100001212'
p293
((lp294
I1
aI2
aI3
aI4
a(lp295
I10
aI10
aI10
aI10
atp296
sS'200211021'
p297
((lp298
(lp299
I-10
atp300
sS'000212001'
p301
((lp302
I0
aI1
aI2
aI6
aI7
a(lp303
I10
aI10
aI-10
aI-10
aI10
atp304
sS'100201012'
p305
((lp306
I1
aI2
aI4
aI6
a(lp307
I10
aI10
aI10
aI10
atp308
sS'010201212'
p309
((lp310
I0
aI2
aI4
a(lp311
I10
aI0
aI0
atp312
sS'010102012'
p313
((lp314
I0
aI2
aI4
aI6
a(lp315
I10
aI10
aI10
aI10
atp316
sS'101020212'
p317
((lp318
I1
aI3
aI5
a(lp319
I10
aI10
aI10
atp320
sS'100111222'
p321
((lp322
(lp323
I10
atp324
sS'000212211'
p325
((lp326
I0
aI1
aI2
a(lp327
I10
aI10
aI10
atp328
sS'110201020'
p329
((lp330
(lp331
I10
atp332
sS'111122122'
p333
((lp334
(lp335
I10
atp336
sS'200101122'
p337
((lp338
I1
aI2
aI4
a(lp339
I-10
aI-10
aI10
atp340
sS'110112022'
p341
((lp342
I2
aI6
a(lp343
I0
aI-10
atp344
sS'101012212'
p345
((lp346
I1
aI3
a(lp347
I10
aI0
atp348
sS'001102221'
p349
((lp350
(lp351
I-10
atp352
sS'000211120'
p353
((lp354
I0
aI1
aI2
aI8
a(lp355
I-10
aI-10
aI-10
aI-10
atp356
sS'000120201'
p357
((lp358
I0
aI1
aI2
aI5
aI7
a(lp359
I0
aI10
aI0
aI0
aI10
atp360
sS'200011221'
p361
((lp362
I1
aI2
aI3
a(lp363
I-10
aI-10
aI10
atp364
sS'102121122'
p365
((lp366
I1
a(lp367
I10
atp368
sS'100221102'
p369
((lp370
I1
aI2
aI7
a(lp371
I10
aI10
aI10
atp372
sS'002112112'
p373
((lp374
I0
aI1
a(lp375
I0
aI10
atp376
sS'200002101'
p377
((lp378
I1
aI2
aI3
aI4
aI7
a(lp379
I0
aI-10
aI-10
aI-10
aI-10
atp380
sS'200122111'
p381
((lp382
I1
aI2
a(lp383
I-10
aI10
atp384
sS'101221012'
p385
((lp386
I1
aI6
a(lp387
I10
aI10
atp388
sS'000102211'
p389
((lp390
I0
aI1
aI2
aI4
a(lp391
I10
aI10
aI10
aI10
atp392
sS'000102210'
p393
((lp394
I0
aI1
aI2
aI4
aI8
a(lp395
I10
aI10
aI10
aI-10
aI10
atp396
sS'101201212'
p397
((lp398
I1
aI4
a(lp399
I0
aI10
atp400
sS'200120121'
p401
((lp402
I1
aI2
aI5
a(lp403
I0
aI0
aI0
atp404
sS'100020112'
p405
((lp406
I1
aI2
aI3
aI5
a(lp407
I10
aI10
aI10
aI10
atp408
sS'001120221'
p409
((lp410
I0
aI1
aI5
a(lp411
I-10
aI10
aI0
atp412
sS'010202112'
p413
((lp414
I0
aI2
aI4
a(lp415
I-10
aI-10
aI0
atp416
sS'111212022'
p417
((lp418
I6
a(lp419
I10
atp420
sS'010111222'
p421
((lp422
(lp423
I10
atp424
sS'101021022'
p425
((lp426
I1
aI3
aI6
a(lp427
I10
aI-10
aI10
atp428
sS'110211022'
p429
((lp430
(lp431
I10
atp432
sS'000011212'
p433
((lp434
I0
aI1
aI2
aI3
a(lp435
I10
aI10
aI10
aI0
atp436
sS'101202112'
p437
((lp438
(lp439
I10
atp440
sS'000122011'
p441
((lp442
I0
aI1
aI2
aI6
a(lp443
I10
aI10
aI10
aI10
atp444
sS'200121001'
p445
((lp446
I1
aI2
aI6
aI7
a(lp447
I0
aI0
aI0
aI0
atp448
sS'200001001'
p449
((lp450
I1
aI2
aI3
aI4
aI6
aI7
a(lp451
I0
aI0
aI10
aI10
aI0
aI0
atp452
sS'100002021'
p453
((lp454
I1
aI2
aI3
aI4
aI6
a(lp455
I-10
aI-10
aI-10
aI10
aI10
atp456
sS'000202011'
p457
((lp458
I0
aI1
aI2
aI4
aI6
a(lp459
I-10
aI10
aI-10
aI10
aI-10
atp460
sS'210111022'
p461
((lp462
(lp463
I10
atp464
sS'000210121'
p465
((lp466
I0
aI1
aI2
aI5
a(lp467
I-10
aI10
aI10
aI10
atp468
sS'000210120'
p469
((lp470
I0
aI1
aI2
aI5
aI8
a(lp471
I10
aI-10
aI-10
aI-10
aI-10
atp472
sS'002102112'
p473
((lp474
I0
aI1
aI4
a(lp475
I10
aI0
aI0
atp476
sS'100200121'
p477
((lp478
I1
aI2
aI4
aI5
a(lp479
I10
aI10
aI10
aI10
atp480
sS'100001002'
p481
((lp482
I1
aI2
aI3
aI4
aI6
aI7
a(lp483
I10
aI10
aI10
aI10
aI10
aI10
atp484
sS'211202121'
p485
((lp486
(lp487
I-10
atp488
sS'100002201'
p489
((lp490
I1
aI2
aI3
aI4
aI7
a(lp491
I-10
aI-10
aI-10
aI10
aI10
atp492
sS'100010221'
p493
((lp494
(lp495
I10
atp496
sS'101110222'
p497
((lp498
I1
aI5
a(lp499
I-10
aI-10
atp500
sS'200101012'
p501
((lp502
I1
aI2
aI4
aI6
a(lp503
I10
aI10
aI-10
aI10
atp504
sS'200100012'
p505
((lp506
I1
aI2
aI4
aI5
aI6
a(lp507
I-10
aI-10
aI0
aI-10
aI-10
atp508
sS'102111022'
p509
((lp510
(lp511
I10
atp512
sS'100212001'
p513
((lp514
(lp515
I10
atp516
sS'102021112'
p517
((lp518
(lp519
I10
atp520
sS'200000101'
p521
((lp522
I1
aI2
aI3
aI4
aI5
aI7
a(lp523
I0
aI10
aI10
aI10
aI0
aI0
atp524
sS'000012012'
p525
((lp526
I0
aI1
aI2
aI3
aI6
a(lp527
I0
aI0
aI0
aI0
aI0
atp528
sS'201011122'
p529
((lp530
I1
aI3
a(lp531
I-10
aI-10
atp532
sS'000121102'
p533
((lp534
I0
aI1
aI2
aI7
a(lp535
I-10
aI10
aI10
aI-10
atp536
sS'101112202'
p537
((lp538
I1
aI7
a(lp539
I10
aI-10
atp540
sS'210101212'
p541
((lp542
I2
aI4
a(lp543
I-10
aI-10
atp544
sS'112121212'
p545
((lp546
(lp547
I10
atp548
sS'100000020'
p549
((lp550
I1
aI2
aI3
aI4
aI5
aI6
aI8
a(lp551
I0
aI0
aI0
aI0
aI0
aI0
aI0
atp552
sS'100000021'
p553
((lp554
I1
aI2
aI3
aI4
aI5
aI6
a(lp555
I10
aI10
aI10
aI0
aI10
aI10
atp556
sS'010221112'
p557
((lp558
(lp559
I10
atp560
sS'100201201'
p561
((lp562
I1
aI2
aI4
aI7
a(lp563
I10
aI10
aI10
aI10
atp564
sS'000121221'
p565
((lp566
I0
aI1
aI2
a(lp567
I0
aI10
aI0
atp568
sS'200112211'
p569
((lp570
I1
aI2
a(lp571
I-10
aI-10
atp572
sS'000122121'
p573
((lp574
I0
aI1
aI2
a(lp575
I0
aI0
aI10
atp576
sS'000211201'
p577
((lp578
I0
aI1
aI2
aI7
a(lp579
I-10
aI10
aI10
aI10
atp580
sS'201212112'
p581
((lp582
I1
a(lp583
I0
atp584
sS'102101022'
p585
((lp586
I1
aI4
aI6
a(lp587
I10
aI10
aI-10
atp588
sS'200111212'
p589
((lp590
(lp591
I10
atp592
sS'001111222'
p593
((lp594
(lp595
I10
atp596
sS'100002112'
p597
((lp598
I1
aI2
aI3
aI4
a(lp599
I10
aI10
aI10
aI10
atp600
sS'000100122'
p601
((lp602
I0
aI1
aI2
aI4
aI5
a(lp603
I-10
aI10
aI-10
aI-10
aI-10
atp604
sS'000201112'
p605
((lp606
(lp607
I10
atp608
sS'100222101'
p609
((lp610
(lp611
I-10
atp612
sS'100100212'
p613
((lp614
(lp615
I10
atp616
sS'210112122'
p617
((lp618
I2
a(lp619
I10
atp620
sS'201010102'
p621
((lp622
I1
aI3
aI5
aI7
a(lp623
I-10
aI0
aI0
aI-10
atp624
sS'111221212'
p625
((lp626
(lp627
I10
atp628
sS'000200101'
p629
((lp630
I0
aI1
aI2
aI4
aI5
aI7
a(lp631
I10
aI-10
aI10
aI10
aI-10
aI10
atp632
sS'200010102'
p633
((lp634
I1
aI2
aI3
aI5
aI7
a(lp635
I0
aI-10
aI0
aI10
aI0
atp636
sS'200112210'
p637
((lp638
I1
aI2
aI8
a(lp639
I-10
aI-10
aI-10
atp640
sS'100122112'
p641
((lp642
(lp643
I10
atp644
sS'000112012'
p645
((lp646
I0
aI1
aI2
aI6
a(lp647
I0
aI10
aI10
aI10
atp648
sS'211112212'
p649
((lp650
(lp651
I10
atp652
sS'201102211'
p653
((lp654
I1
aI4
a(lp655
I-10
aI10
atp656
sS'000012021'
p657
((lp658
I0
aI1
aI2
aI3
aI6
a(lp659
I10
aI-10
aI-10
aI-10
aI-10
atp660
sS'001012102'
p661
((lp662
I0
aI1
aI3
aI7
a(lp663
I0
aI10
aI10
aI10
atp664
sS'000002112'
p665
((lp666
I0
aI1
aI2
aI3
aI4
a(lp667
I10
aI-10
aI-10
aI-10
aI0
atp668
sS'100112122'
p669
((lp670
I1
aI2
a(lp671
I-10
aI0
atp672
sS'101210212'
p673
((lp674
I1
aI5
a(lp675
I0
aI0
atp676
sS'200001211'
p677
((lp678
I1
aI2
aI3
aI4
a(lp679
I0
aI-10
aI10
aI10
atp680
sS'200001210'
p681
((lp682
I1
aI2
aI3
aI4
aI8
a(lp683
I-10
aI0
aI-10
aI-10
aI-10
atp684
sS'100122121'
p685
((lp686
I1
aI2
a(lp687
I10
aI0
atp688
sS'001122102'
p689
((lp690
I0
aI1
aI7
a(lp691
I10
aI10
aI-10
atp692
sS'100210212'
p693
((lp694
I1
aI2
aI5
a(lp695
I0
aI0
aI0
atp696
sS'210112221'
p697
((lp698
(lp699
I-10
atp700
sS'011202021'
p701
((lp702
I0
aI4
aI6
a(lp703
I-10
aI-10
aI-10
atp704
sS'210121212'
p705
((lp706
(lp707
I-10
atp708
sS'100120021'
p709
((lp710
I1
aI2
aI5
aI6
a(lp711
I0
aI0
aI0
aI0
atp712
sS'100120020'
p713
((lp714
I1
aI2
aI5
aI6
aI8
a(lp715
I10
aI10
aI0
aI0
aI0
atp716
sS'100021012'
p717
((lp718
I1
aI2
aI3
aI6
a(lp719
I10
aI10
aI10
aI10
atp720
sS'100120210'
p721
((lp722
(lp723
I10
atp724
sS'100020012'
p725
((lp726
I1
aI2
aI3
aI5
aI6
a(lp727
I10
aI10
aI10
aI10
aI10
atp728
sS'200110012'
p729
((lp730
I1
aI2
aI5
aI6
a(lp731
I10
aI10
aI0
aI10
atp732
sS'000211021'
p733
((lp734
I0
aI1
aI2
aI6
a(lp735
I-10
aI10
aI10
aI10
atp736
sS'110102020'
p737
((lp738
I2
aI4
aI6
aI8
a(lp739
I0
aI10
aI-10
aI10
atp740
sS'110102022'
p741
((lp742
I2
aI4
aI6
a(lp743
I10
aI-10
aI0
atp744
sS'100122021'
p745
((lp746
I1
aI2
aI6
a(lp747
I-10
aI-10
aI0
atp748
sS'200010211'
p749
((lp750
I1
aI2
aI3
aI5
a(lp751
I-10
aI-10
aI10
aI10
atp752
sS'011212212'
p753
((lp754
I0
a(lp755
I0
atp756
sS'000012112'
p757
((lp758
I0
aI1
aI2
aI3
a(lp759
I0
aI10
aI0
aI0
atp760
sS'201011212'
p761
((lp762
I1
aI3
a(lp763
I10
aI0
atp764
sS'202101012'
p765
((lp766
I1
aI4
aI6
a(lp767
I-10
aI10
aI10
atp768
sS'011202112'
p769
((lp770
I0
aI4
a(lp771
I0
aI-10
atp772
sS'100012102'
p773
((lp774
I1
aI2
aI3
aI7
a(lp775
I10
aI0
aI10
aI10
atp776
sS'001110202'
p777
((lp778
I0
aI1
aI5
aI7
a(lp779
I10
aI10
aI10
aI10
atp780
sS'101212012'
p781
((lp782
I1
aI6
a(lp783
I10
aI0
atp784
sS'201121122'
p785
((lp786
(lp787
I-10
atp788
sS'010121212'
p789
((lp790
I0
aI2
a(lp791
I-10
aI10
atp792
sS'100102122'
p793
((lp794
I1
aI2
aI4
a(lp795
I0
aI10
aI-10
atp796
sS'100102120'
p797
((lp798
I1
aI2
aI4
aI8
a(lp799
I10
aI0
aI10
aI10
atp800
sS'000112120'
p801
((lp802
I0
aI1
aI2
aI8
a(lp803
I0
aI-10
aI0
aI0
atp804
sS'101221212'
p805
((lp806
I1
a(lp807
I10
atp808
sS'000200121'
p809
((lp810
I0
aI1
aI2
aI4
aI5
a(lp811
I10
aI-10
aI-10
aI-10
aI-10
atp812
sS'001021212'
p813
((lp814
I0
aI1
aI3
a(lp815
I10
aI-10
aI-10
atp816
sS'200101102'
p817
((lp818
I1
aI2
aI4
aI7
a(lp819
I10
aI10
aI-10
aI10
atp820
sS'201101022'
p821
((lp822
I1
aI4
aI6
a(lp823
I10
aI10
aI-10
atp824
sS'100112220'
p825
((lp826
(lp827
I-10
atp828
sS'101102122'
p829
((lp830
(lp831
I10
atp832
sS'010202011'
p833
((lp834
(lp835
I10
atp836
sS'200220111'
p837
((lp838
I1
aI2
aI5
a(lp839
I10
aI-10
aI10
atp840
sS'010102221'
p841
((lp842
(lp843
I-10
atp844
sS'200111020'
p845
((lp846
(lp847
I10
atp848
sS'111202021'
p849
((lp850
I4
aI6
a(lp851
I-10
aI-10
atp852
sS'001202121'
p853
((lp854
I0
aI1
aI4
a(lp855
I10
aI-10
aI-10
atp856
sS'110102122'
p857
((lp858
I2
aI4
a(lp859
I0
aI10
atp860
sS'010112212'
p861
((lp862
I0
aI2
a(lp863
I10
aI10
atp864
sS'200121120'
p865
((lp866
I1
aI2
aI8
a(lp867
I-10
aI-10
aI0
atp868
sS'200121121'
p869
((lp870
I1
aI2
a(lp871
I0
aI0
atp872
sS'000202111'
p873
((lp874
I0
aI1
aI2
aI4
a(lp875
I10
aI-10
aI10
aI-10
atp876
sS'101101222'
p877
((lp878
I1
aI4
a(lp879
I-10
aI10
atp880
sS'200211201'
p881
((lp882
I1
aI2
aI7
a(lp883
I-10
aI-10
aI-10
atp884
sS'100110222'
p885
((lp886
I1
aI2
aI5
a(lp887
I-10
aI-10
aI10
atp888
sS'100110220'
p889
((lp890
I1
aI2
aI5
aI8
a(lp891
I10
aI10
aI-10
aI10
atp892
sS'210221121'
p893
((lp894
(lp895
I-10
atp896
sS'200112001'
p897
((lp898
I1
aI2
aI6
aI7
a(lp899
I-10
aI-10
aI-10
aI-10
atp900
sS'100002121'
p901
((lp902
I1
aI2
aI3
aI4
a(lp903
I10
aI10
aI10
aI10
atp904
sS'100002120'
p905
((lp906
I1
aI2
aI3
aI4
aI8
a(lp907
I0
aI10
aI0
aI10
aI10
atp908
sS'000112201'
p909
((lp910
I0
aI1
aI2
aI7
a(lp911
I-10
aI10
aI10
aI-10
atp912
sS'001101202'
p913
((lp914
I0
aI1
aI4
aI7
a(lp915
I10
aI10
aI10
aI10
atp916
sS'101121222'
p917
((lp918
I1
a(lp919
I10
atp920
sS'000110122'
p921
((lp922
I0
aI1
aI2
aI5
a(lp923
I10
aI-10
aI10
aI0
atp924
sS'100212120'
p925
((lp926
I1
aI2
aI8
a(lp927
I10
aI10
aI10
atp928
sS'100212121'
p929
((lp930
(lp931
I10
atp932
sS'101012022'
p933
((lp934
I1
aI3
aI6
a(lp935
I-10
aI-10
aI10
atp936
sS'200211112'
p937
((lp938
(lp939
I10
atp940
sS'010202121'
p941
((lp942
I0
aI2
aI4
a(lp943
I-10
aI-10
aI-10
atp944
sS'100002211'
p945
((lp946
I1
aI2
aI3
aI4
a(lp947
I10
aI10
aI10
aI10
atp948
sS'210211221'
p949
((lp950
(lp951
I-10
atp952
sS'010211212'
p953
((lp954
I0
aI2
a(lp955
I0
aI10
atp956
sS'200011002'
p957
((lp958
I1
aI2
aI3
aI6
aI7
a(lp959
I0
aI0
aI10
aI10
aI10
atp960
sS'201121221'
p961
((lp962
I1
a(lp963
I10
atp964
sS'110201122'
p965
((lp966
(lp967
I10
atp968
sS'100220101'
p969
((lp970
I1
aI2
aI5
aI7
a(lp971
I10
aI-10
aI-10
aI10
atp972
sS'100211202'
p973
((lp974
I1
aI2
aI7
a(lp975
I10
aI0
aI0
atp976
sS'201110122'
p977
((lp978
I1
aI5
a(lp979
I-10
aI10
atp980
sS'001112122'
p981
((lp982
I0
aI1
a(lp983
I10
aI-10
atp984
sS'100002012'
p985
((lp986
I1
aI2
aI3
aI4
aI6
a(lp987
I0
aI10
aI10
aI0
aI10
atp988
sS'101212102'
p989
((lp990
(lp991
I10
atp992
sS'100121002'
p993
((lp994
I1
aI2
aI6
aI7
a(lp995
I10
aI10
aI10
aI10
atp996
sS'000112221'
p997
((lp998
(lp999
I-10
atp1000
sS'201111022'
p1001
((lp1002
(lp1003
I10
atp1004
sS'100211022'
p1005
((lp1006
I1
aI2
aI6
a(lp1007
I10
aI-10
aI-10
atp1008
sS'000201012'
p1009
((lp1010
I0
aI1
aI2
aI4
aI6
a(lp1011
I10
aI10
aI0
aI0
aI10
atp1012
sS'010102122'
p1013
((lp1014
I0
aI2
aI4
a(lp1015
I0
aI10
aI0
atp1016
sS'000221121'
p1017
((lp1018
I0
aI1
aI2
a(lp1019
I10
aI-10
aI-10
atp1020
sS'200100121'
p1021
((lp1022
I1
aI2
aI4
aI5
a(lp1023
I0
aI0
aI0
aI0
atp1024
sS'200101021'
p1025
((lp1026
I1
aI2
aI4
aI6
a(lp1027
I10
aI10
aI0
aI10
atp1028
sS'200101020'
p1029
((lp1030
I1
aI2
aI4
aI6
aI8
a(lp1031
I10
aI10
aI10
aI0
aI0
atp1032
sS'100202112'
p1033
((lp1034
I1
aI2
aI4
a(lp1035
I-10
aI10
aI0
atp1036
sS'001021012'
p1037
((lp1038
I0
aI1
aI3
aI6
a(lp1039
I-10
aI10
aI10
aI10
atp1040
sS'001211202'
p1041
((lp1042
I0
aI1
aI7
a(lp1043
I0
aI0
aI0
atp1044
sS'100121220'
p1045
((lp1046
I1
aI2
aI8
a(lp1047
I10
aI0
aI0
atp1048
sS'102101122'
p1049
((lp1050
I1
aI4
a(lp1051
I-10
aI10
atp1052
sS'000010201'
p1053
((lp1054
I0
aI1
aI2
aI3
aI5
aI7
a(lp1055
I-10
aI10
aI10
aI10
aI10
aI10
atp1056
sS'200211102'
p1057
((lp1058
I1
aI2
aI7
a(lp1059
I-10
aI-10
aI10
atp1060
sS'002111212'
p1061
((lp1062
(lp1063
I10
atp1064
sS'001102122'
p1065
((lp1066
I0
aI1
aI4
a(lp1067
I10
aI10
aI-10
atp1068
sS'100112002'
p1069
((lp1070
I1
aI2
aI6
aI7
a(lp1071
I10
aI10
aI10
aI-10
atp1072
sS'001121212'
p1073
((lp1074
I0
aI1
a(lp1075
I-10
aI10
atp1076
sS'000101202'
p1077
((lp1078
I0
aI1
aI2
aI4
aI7
a(lp1079
I10
aI10
aI10
aI10
aI10
atp1080
sS'000100012'
p1081
((lp1082
I0
aI1
aI2
aI4
aI5
aI6
a(lp1083
I0
aI10
aI10
aI10
aI10
aI10
atp1084
sS'211112122'
p1085
((lp1086
(lp1087
I10
atp1088
sS'000120112'
p1089
((lp1090
I0
aI1
aI2
aI5
a(lp1091
I-10
aI10
aI10
aI10
atp1092
sS'201211221'
p1093
((lp1094
(lp1095
I-10
atp1096
sS'000101022'
p1097
((lp1098
I0
aI1
aI2
aI4
aI6
a(lp1099
I-10
aI10
aI-10
aI10
aI-10
atp1100
sS'101202021'
p1101
((lp1102
I1
aI4
aI6
a(lp1103
I-10
aI10
aI10
atp1104
sS'000101020'
p1105
((lp1106
I0
aI1
aI2
aI4
aI6
aI8
a(lp1107
I10
aI10
aI10
aI10
aI10
aI10
atp1108
sS'201101202'
p1109
((lp1110
I1
aI4
aI7
a(lp1111
I10
aI10
aI-10
atp1112
sS'100010002'
p1113
((lp1114
I1
aI2
aI3
aI5
aI6
aI7
a(lp1115
I0
aI10
aI0
aI0
aI10
aI0
atp1116
sS'110202120'
p1117
((lp1118
I2
aI4
aI8
a(lp1119
I10
aI10
aI-10
atp1120
sS'110202121'
p1121
((lp1122
I2
aI4
a(lp1123
I10
aI-10
atp1124
sS'100120102'
p1125
((lp1126
I1
aI2
aI5
aI7
a(lp1127
I10
aI10
aI10
aI10
atp1128
sS'111221221'
p1129
((lp1130
(lp1131
I10
atp1132
sS'100211221'
p1133
((lp1134
(lp1135
I10
atp1136
sS'210211122'
p1137
((lp1138
(lp1139
I-10
atp1140
sS'100221211'
p1141
((lp1142
I1
aI2
a(lp1143
I0
aI10
atp1144
sS'000102102'
p1145
((lp1146
I0
aI1
aI2
aI4
aI7
a(lp1147
I10
aI0
aI10
aI-10
aI-10
atp1148
sS'200000001'
p1149
((lp1150
I1
aI2
aI3
aI4
aI5
aI6
aI7
a(lp1151
I0
aI0
aI0
aI-10
aI0
aI0
aI0
atp1152
sS'101010202'
p1153
((lp1154
I1
aI3
aI5
aI7
a(lp1155
I0
aI0
aI0
aI-10
atp1156
sS'100001221'
p1157
((lp1158
I1
aI2
aI3
aI4
a(lp1159
I10
aI10
aI10
aI10
atp1160
sS'100001220'
p1161
((lp1162
I1
aI2
aI3
aI4
aI8
a(lp1163
I10
aI0
aI10
aI10
aI10
atp1164
sS'201122211'
p1165
((lp1166
I1
a(lp1167
I10
atp1168
sS'000001102'
p1169
((lp1170
I0
aI1
aI2
aI3
aI4
aI7
a(lp1171
I10
aI10
aI10
aI10
aI10
aI-10
atp1172
sS'000000102'
p1173
((lp1174
I0
aI1
aI2
aI3
aI4
aI5
aI7
a(lp1175
I10
aI0
aI-10
aI0
aI0
aI-10
aI10
atp1176
sS'012121212'
p1177
((lp1178
I0
a(lp1179
I10
atp1180
sS'202101112'
p1181
((lp1182
(lp1183
I10
atp1184
sS'100101220'
p1185
((lp1186
I1
aI2
aI4
aI8
a(lp1187
I10
aI10
aI10
aI10
atp1188
sS'100101222'
p1189
((lp1190
I1
aI2
aI4
a(lp1191
I10
aI-10
aI10
atp1192
sS'100201021'
p1193
((lp1194
I1
aI2
aI4
aI6
a(lp1195
I10
aI10
aI10
aI10
atp1196
sS'100201020'
p1197
((lp1198
I1
aI2
aI4
aI6
aI8
a(lp1199
I10
aI10
aI10
aI10
aI10
atp1200
sS'001101022'
p1201
((lp1202
I0
aI1
aI4
aI6
a(lp1203
I10
aI-10
aI10
aI10
atp1204
sS'101112022'
p1205
((lp1206
I1
aI6
a(lp1207
I-10
aI-10
atp1208
sS'001021122'
p1209
((lp1210
I0
aI1
aI3
a(lp1211
I10
aI-10
aI-10
atp1212
sS'000021012'
p1213
((lp1214
I0
aI1
aI2
aI3
aI6
a(lp1215
I10
aI-10
aI-10
aI-10
aI10
atp1216
sS'101012202'
p1217
((lp1218
I1
aI3
aI7
a(lp1219
I-10
aI-10
aI0
atp1220
sS'210112212'
p1221
((lp1222
I2
a(lp1223
I10
atp1224
sS'101102202'
p1225
((lp1226
I1
aI4
aI7
a(lp1227
I10
aI-10
aI10
atp1228
sS'110202012'
p1229
((lp1230
I2
aI4
aI6
a(lp1231
I-10
aI0
aI-10
atp1232
sS'201112221'
p1233
((lp1234
(lp1235
I-10
atp1236
sS'002101212'
p1237
((lp1238
I0
aI1
aI4
a(lp1239
I10
aI-10
aI10
atp1240
sS'001212121'
p1241
((lp1242
I0
aI1
a(lp1243
I-10
aI10
atp1244
sS'010101222'
p1245
((lp1246
I0
aI2
aI4
a(lp1247
I10
aI10
aI10
atp1248
sS'001102102'
p1249
((lp1250
I0
aI1
aI4
aI7
a(lp1251
I10
aI10
aI10
aI10
atp1252
sS'101122012'
p1253
((lp1254
(lp1255
I10
atp1256
sS'201012121'
p1257
((lp1258
I1
aI3
a(lp1259
I-10
aI-10
atp1260
sS'000011002'
p1261
((lp1262
I0
aI1
aI2
aI3
aI6
aI7
a(lp1263
I10
aI10
aI10
aI0
aI10
aI10
atp1264
sS'100001122'
p1265
((lp1266
I1
aI2
aI3
aI4
a(lp1267
I-10
aI10
aI10
aI10
atp1268
sS'000012121'
p1269
((lp1270
I0
aI1
aI2
aI3
a(lp1271
I-10
aI10
aI10
aI10
atp1272
sS'000212101'
p1273
((lp1274
I0
aI1
aI2
aI7
a(lp1275
I-10
aI10
aI10
aI10
atp1276
sS'000001212'
p1277
((lp1278
I0
aI1
aI2
aI3
aI4
a(lp1279
I10
aI-10
aI0
aI10
aI0
atp1280
sS'010201122'
p1281
((lp1282
I0
aI2
aI4
a(lp1283
I10
aI-10
aI-10
atp1284
sS'000001210'
p1285
((lp1286
I0
aI1
aI2
aI3
aI4
aI8
a(lp1287
I0
aI10
aI10
aI10
aI10
aI10
atp1288
sS'101201202'
p1289
((lp1290
I1
aI4
aI7
a(lp1291
I10
aI0
aI0
atp1292
sS'000102201'
p1293
((lp1294
I0
aI1
aI2
aI4
aI7
a(lp1295
I-10
aI-10
aI-10
aI-10
aI10
atp1296
sS'000100020'
p1297
((lp1298
I0
aI1
aI2
aI4
aI5
aI6
aI8
a(lp1299
I0
aI10
aI-10
aI-10
aI10
aI0
aI0
atp1300
sS'001010202'
p1301
((lp1302
I0
aI1
aI3
aI5
aI7
a(lp1303
I-10
aI0
aI10
aI0
aI0
atp1304
sS'200201011'
p1305
((lp1306
I1
aI2
aI4
aI6
a(lp1307
I10
aI10
aI10
aI10
atp1308
sS'011211222'
p1309
((lp1310
I0
a(lp1311
I10
atp1312
sS'000011221'
p1313
((lp1314
I0
aI1
aI2
aI3
a(lp1315
I10
aI10
aI10
aI10
atp1316
sS'000010021'
p1317
((lp1318
I0
aI1
aI2
aI3
aI5
aI6
a(lp1319
I-10
aI10
aI10
aI10
aI10
aI10
atp1320
sS'010221211'
p1321
((lp1322
(lp1323
I10
atp1324
sS'002101012'
p1325
((lp1326
I0
aI1
aI4
aI6
a(lp1327
I10
aI10
aI10
aI10
atp1328
sS'110222112'
p1329
((lp1330
(lp1331
I-10
atp1332
sS'000121120'
p1333
((lp1334
I0
aI1
aI2
aI8
a(lp1335
I0
aI0
aI0
aI-10
atp1336
sS'000121122'
p1337
((lp1338
I0
aI1
aI2
a(lp1339
I-10
aI-10
aI-10
atp1340
sS'100112212'
p1341
((lp1342
(lp1343
I10
atp1344
sS'200011122'
p1345
((lp1346
I1
aI2
aI3
a(lp1347
I-10
aI-10
aI10
atp1348
sS'100021122'
p1349
((lp1350
I1
aI2
aI3
a(lp1351
I10
aI10
aI-10
atp1352
sS'000122001'
p1353
((lp1354
I0
aI1
aI2
aI6
aI7
a(lp1355
I0
aI10
aI10
aI10
aI10
atp1356
sS'200121012'
p1357
((lp1358
(lp1359
I-10
atp1360
sS'100122201'
p1361
((lp1362
I1
aI2
aI7
a(lp1363
I-10
aI-10
aI10
atp1364
sS'211202112'
p1365
((lp1366
I4
a(lp1367
I0
atp1368
sS'001012212'
p1369
((lp1370
I0
aI1
aI3
a(lp1371
I0
aI0
aI10
atp1372
sS'201010212'
p1373
((lp1374
I1
aI3
aI5
a(lp1375
I0
aI10
aI0
atp1376
sS'100102012'
p1377
((lp1378
(lp1379
I10
atp1380
sS'001112212'
p1381
((lp1382
I0
aI1
a(lp1383
I10
aI10
atp1384
sS'100212012'
p1385
((lp1386
I1
aI2
aI6
a(lp1387
I0
aI0
aI0
atp1388
sS'200201121'
p1389
((lp1390
(lp1391
I-10
atp1392
sS'101202121'
p1393
((lp1394
(lp1395
I10
atp1396
sS'000110221'
p1397
((lp1398
I0
aI1
aI2
aI5
a(lp1399
I10
aI10
aI10
aI-10
atp1400
sS'100202011'
p1401
((lp1402
I1
aI2
aI4
aI6
a(lp1403
I10
aI10
aI-10
aI10
atp1404
sS'110101222'
p1405
((lp1406
(lp1407
I10
atp1408
sS'101102212'
p1409
((lp1410
(lp1411
I10
atp1412
sS'200202111'
p1413
((lp1414
I1
aI2
aI4
a(lp1415
I10
aI-10
aI-10
atp1416
sS'000121012'
p1417
((lp1418
I0
aI1
aI2
aI6
a(lp1419
I-10
aI10
aI10
aI10
atp1420
sS'100000012'
p1421
((lp1422
I1
aI2
aI3
aI4
aI5
aI6
a(lp1423
I10
aI10
aI10
aI10
aI10
aI10
atp1424
sS'000211212'
p1425
((lp1426
I0
aI1
aI2
a(lp1427
I0
aI0
aI0
atp1428
sS'200111122'
p1429
((lp1430
(lp1431
I10
atp1432
sS'100201212'
p1433
((lp1434
I1
aI2
aI4
a(lp1435
I10
aI0
aI0
atp1436
sS'201121212'
p1437
((lp1438
(lp1439
I-10
atp1440
sS'000220111'
p1441
((lp1442
I0
aI1
aI2
aI5
a(lp1443
I10
aI10
aI10
aI-10
atp1444
sS'001122211'
p1445
((lp1446
I0
aI1
a(lp1447
I10
aI10
atp1448
sS'000000001'
p1449
((lp1450
I0
aI1
aI2
aI3
aI4
aI5
aI6
aI7
a(lp1451
I0
aI0
aI10
aI10
aI0
aI10
aI10
aI0
atp1452
sS'000000000'
p1453
((lp1454
I0
aI1
aI2
aI3
aI4
aI5
aI6
aI7
aI8
a(lp1455
I0
aI0
aI0
aI0
aI0
aI0
aI0
aI0
aI0
atp1456
sS'000220101'
p1457
((lp1458
I0
aI1
aI2
aI5
aI7
a(lp1459
I-10
aI-10
aI-10
aI10
aI-10
atp1460
sS'100120221'
p1461
((lp1462
I1
aI2
aI5
a(lp1463
I-10
aI-10
aI0
atp1464
sS'000201121'
p1465
((lp1466
I0
aI1
aI2
aI4
a(lp1467
I-10
aI-10
aI-10
aI10
atp1468
sS'000201120'
p1469
((lp1470
I0
aI1
aI2
aI4
aI8
a(lp1471
I10
aI-10
aI-10
aI-10
aI-10
atp1472
sS'100010122'
p1473
((lp1474
I1
aI2
aI3
aI5
a(lp1475
I-10
aI0
aI10
aI10
atp1476
sS'001211022'
p1477
((lp1478
I0
aI1
aI6
a(lp1479
I-10
aI-10
aI-10
atp1480
sS'000112021'
p1481
((lp1482
I0
aI1
aI2
aI6
a(lp1483
I-10
aI10
aI10
aI-10
atp1484
sS'000112020'
p1485
((lp1486
I0
aI1
aI2
aI6
aI8
a(lp1487
I-10
aI-10
aI-10
aI-10
aI-10
atp1488
sS'201101122'
p1489
((lp1490
I1
aI4
a(lp1491
I-10
aI-10
atp1492
sS'100122102'
p1493
((lp1494
I1
aI2
aI7
a(lp1495
I10
aI10
aI10
atp1496
sS'200102211'
p1497
((lp1498
I1
aI2
aI4
a(lp1499
I10
aI-10
aI-10
atp1500
sS'000120012'
p1501
((lp1502
I0
aI1
aI2
aI5
aI6
a(lp1503
I10
aI-10
aI-10
aI-10
aI-10
atp1504
sS'200010112'
p1505
((lp1506
I1
aI2
aI3
aI5
a(lp1507
I10
aI10
aI10
aI0
atp1508
sS'101201022'
p1509
((lp1510
I1
aI4
aI6
a(lp1511
I10
aI-10
aI10
atp1512
sS'000102021'
p1513
((lp1514
I0
aI1
aI2
aI4
aI6
a(lp1515
I-10
aI-10
aI-10
aI-10
aI0
atp1516
sS'000210211'
p1517
((lp1518
I0
aI1
aI2
aI5
a(lp1519
I10
aI10
aI10
aI10
atp1520
sS'200210211'
p1521
((lp1522
I1
aI2
aI5
a(lp1523
I10
aI0
aI-10
atp1524
sS'000110020'
p1525
((lp1526
I0
aI1
aI2
aI5
aI6
aI8
a(lp1527
I10
aI10
aI10
aI-10
aI10
aI10
atp1528
sS'000110022'
p1529
((lp1530
I0
aI1
aI2
aI5
aI6
a(lp1531
I-10
aI10
aI-10
aI10
aI-10
atp1532
sS'001102012'
p1533
((lp1534
I0
aI1
aI4
aI6
a(lp1535
I10
aI10
aI10
aI10
atp1536
sS'000200112'
p1537
((lp1538
I0
aI1
aI2
aI4
aI5
a(lp1539
I10
aI0
aI10
aI0
aI10
atp1540
sS'100012212'
p1541
((lp1542
I1
aI2
aI3
a(lp1543
I0
aI0
aI10
atp1544
sS'110212212'
p1545
((lp1546
I2
a(lp1547
I0
atp1548
sS'200110201'
p1549
((lp1550
I1
aI2
aI5
aI7
a(lp1551
I10
aI-10
aI-10
aI10
atp1552
sS'001010122'
p1553
((lp1554
I0
aI1
aI3
aI5
a(lp1555
I-10
aI-10
aI10
aI10
atp1556
sS'200221101'
p1557
((lp1558
I1
aI2
aI7
a(lp1559
I-10
aI-10
aI10
atp1560
sS'100201102'
p1561
((lp1562
I1
aI2
aI4
aI7
a(lp1563
I10
aI10
aI10
aI10
atp1564
sS'101210202'
p1565
((lp1566
I1
aI5
aI7
a(lp1567
I0
aI0
aI0
atp1568
sS'200001201'
p1569
((lp1570
I1
aI2
aI3
aI4
aI7
a(lp1571
I-10
aI0
aI-10
aI-10
aI-10
atp1572
sS'210102120'
p1573
((lp1574
I2
aI4
aI8
a(lp1575
I10
aI0
aI0
atp1576
sS'210102121'
p1577
((lp1578
I2
aI4
a(lp1579
I0
aI10
atp1580
sS'001201122'
p1581
((lp1582
I0
aI1
aI4
a(lp1583
I10
aI-10
aI-10
atp1584
sS'101011222'
p1585
((lp1586
I1
aI3
a(lp1587
I-10
aI10
atp1588
sS'000112002'
p1589
((lp1590
I0
aI1
aI2
aI6
aI7
a(lp1591
I-10
aI0
aI-10
aI-10
aI0
atp1592
sS'201211212'
p1593
((lp1594
I1
a(lp1595
I0
atp1596
sS'101012122'
p1597
((lp1598
(lp1599
I10
atp1600
sS'200101201'
p1601
((lp1602
I1
aI2
aI4
aI7
a(lp1603
I10
aI-10
aI0
aI10
atp1604
sS'200112121'
p1605
((lp1606
I1
aI2
a(lp1607
I-10
aI0
atp1608
sS'200110021'
p1609
((lp1610
I1
aI2
aI5
aI6
a(lp1611
I10
aI10
aI-10
aI10
atp1612
sS'201110212'
p1613
((lp1614
I1
aI5
a(lp1615
I10
aI10
atp1616
sS'200121201'
p1617
((lp1618
I1
aI2
aI7
a(lp1619
I-10
aI0
aI-10
atp1620
sS'110202112'
p1621
((lp1622
I2
aI4
a(lp1623
I0
aI-10
atp1624
sS'010212112'
p1625
((lp1626
I0
aI2
a(lp1627
I0
aI0
atp1628
sS'200010201'
p1629
((lp1630
I1
aI2
aI3
aI5
aI7
a(lp1631
I-10
aI-10
aI-10
aI-10
aI-10
atp1632
sS'200200111'
p1633
((lp1634
I1
aI2
aI4
aI5
a(lp1635
I10
aI10
aI10
aI10
atp1636
sS'201011202'
p1637
((lp1638
I1
aI3
aI7
a(lp1639
I0
aI10
aI0
atp1640
sS'101120122'
p1641
((lp1642
(lp1643
I10
atp1644
sS'102101212'
p1645
((lp1646
(lp1647
I10
atp1648
sS'210101022'
p1649
((lp1650
I2
aI4
aI6
a(lp1651
I10
aI10
aI-10
atp1652
sS'000121210'
p1653
((lp1654
I0
aI1
aI2
aI8
a(lp1655
I-10
aI10
aI10
aI10
atp1656
sS'210101020'
p1657
((lp1658
I2
aI4
aI6
aI8
a(lp1659
I10
aI10
aI10
aI10
atp1660
sS'001120122'
p1661
((lp1662
I0
aI1
aI5
a(lp1663
I10
aI10
aI-10
atp1664
sS'001121022'
p1665
((lp1666
I0
aI1
aI6
a(lp1667
I-10
aI10
aI-10
atp1668
sS'100210120'
p1669
((lp1670
I1
aI2
aI5
aI8
a(lp1671
I10
aI10
aI10
aI10
atp1672
sS'121212121'
p1673
((lp1674
(lp1675
I10
atp1676
sS'100210122'
p1677
((lp1678
I1
aI2
aI5
a(lp1679
I10
aI10
aI-10
atp1680
sS'101121022'
p1681
((lp1682
I1
aI6
a(lp1683
I-10
aI10
atp1684
sS'201011022'
p1685
((lp1686
I1
aI3
aI6
a(lp1687
I-10
aI10
aI-10
atp1688
sS'102102112'
p1689
((lp1690
(lp1691
I10
atp1692
sS'010201021'
p1693
((lp1694
I0
aI2
aI4
aI6
a(lp1695
I-10
aI10
aI10
aI10
atp1696
sS'010201020'
p1697
((lp1698
I0
aI2
aI4
aI6
aI8
a(lp1699
I10
aI-10
aI-10
aI-10
aI-10
atp1700
sS'101210122'
p1701
((lp1702
(lp1703
I10
atp1704
sS'000111220'
p1705
((lp1706
(lp1707
I10
atp1708
sS'000222111'
p1709
((lp1710
(lp1711
I-10
atp1712
sS'010121022'
p1713
((lp1714
I0
aI2
aI6
a(lp1715
I10
aI10
aI-10
atp1716
sS'110202021'
p1717
((lp1718
I2
aI4
aI6
a(lp1719
I-10
aI10
aI-10
atp1720
sS'210211212'
p1721
((lp1722
I2
a(lp1723
I0
atp1724
sS'200210101'
p1725
((lp1726
I1
aI2
aI5
aI7
a(lp1727
I-10
aI-10
aI-10
aI-10
atp1728
sS'000002211'
p1729
((lp1730
I0
aI1
aI2
aI3
aI4
a(lp1731
I10
aI10
aI10
aI10
aI10
atp1732
sS'000202101'
p1733
((lp1734
I0
aI1
aI2
aI4
aI7
a(lp1735
I-10
aI-10
aI-10
aI-10
aI-10
atp1736
sS'002101122'
p1737
((lp1738
I0
aI1
aI4
a(lp1739
I-10
aI10
aI10
atp1740
sS'000000121'
p1741
((lp1742
I0
aI1
aI2
aI3
aI4
aI5
a(lp1743
I0
aI10
aI0
aI10
aI0
aI10
atp1744
sS'000010221'
p1745
((lp1746
I0
aI1
aI2
aI3
aI5
a(lp1747
I10
aI-10
aI-10
aI-10
aI10
atp1748
sS'100011022'
p1749
((lp1750
I1
aI2
aI3
aI6
a(lp1751
I-10
aI10
aI10
aI10
atp1752
sS'100102201'
p1753
((lp1754
I1
aI2
aI4
aI7
a(lp1755
I10
aI10
aI10
aI-10
atp1756
sS'010211022'
p1757
((lp1758
I0
aI2
aI6
a(lp1759
I10
aI-10
aI-10
atp1760
sS'200211211'
p1761
((lp1762
I1
aI2
a(lp1763
I0
aI-10
atp1764
sS'100012002'
p1765
((lp1766
I1
aI2
aI3
aI6
aI7
a(lp1767
I0
aI0
aI-10
aI0
aI0
atp1768
sS'210201021'
p1769
((lp1770
(lp1771
I-10
atp1772
sS'211212112'
p1773
((lp1774
(lp1775
I0
atp1776
sS'100212112'
p1777
((lp1778
I1
aI2
a(lp1779
I10
aI0
atp1780
sS'100011202'
p1781
((lp1782
I1
aI2
aI3
aI7
a(lp1783
I10
aI10
aI10
aI10
atp1784
sS'200112012'
p1785
((lp1786
I1
aI2
aI6
a(lp1787
I0
aI-10
aI-10
atp1788
sS'110222121'
p1789
((lp1790
(lp1791
I-10
atp1792
sS'101120221'
p1793
((lp1794
I1
aI5
a(lp1795
I0
aI-10
atp1796
sS'000021112'
p1797
((lp1798
(lp1799
I10
atp1800
sS'101211202'
p1801
((lp1802
I1
aI7
a(lp1803
I0
aI10
atp1804
sS'100222011'
p1805
((lp1806
(lp1807
I-10
atp1808
sS'200011012'
p1809
((lp1810
I1
aI2
aI3
aI6
a(lp1811
I10
aI10
aI10
aI10
atp1812
sS'110102220'
p1813
((lp1814
(lp1815
I-10
atp1816
sS'011222112'
p1817
((lp1818
(lp1819
I-10
atp1820
sS'100100122'
p1821
((lp1822
I1
aI2
aI4
aI5
a(lp1823
I-10
aI0
aI10
aI10
atp1824
sS'100220112'
p1825
((lp1826
I1
aI2
aI5
a(lp1827
I-10
aI10
aI10
atp1828
sS'001011202'
p1829
((lp1830
I0
aI1
aI3
aI7
a(lp1831
I10
aI10
aI0
aI10
atp1832
sS'200001021'
p1833
((lp1834
I1
aI2
aI3
aI4
aI6
a(lp1835
I-10
aI-10
aI0
aI-10
aI-10
atp1836
sS'100002001'
p1837
((lp1838
I1
aI2
aI3
aI4
aI6
aI7
a(lp1839
I10
aI10
aI10
aI0
aI10
aI10
atp1840
sS'201102121'
p1841
((lp1842
I1
aI4
a(lp1843
I-10
aI10
atp1844
sS'200012112'
p1845
((lp1846
I1
aI2
aI3
a(lp1847
I0
aI-10
aI-10
atp1848
sS'100001020'
p1849
((lp1850
I1
aI2
aI3
aI4
aI6
aI8
a(lp1851
I0
aI10
aI10
aI10
aI10
aI10
atp1852
sS'100001022'
p1853
((lp1854
I1
aI2
aI3
aI4
aI6
a(lp1855
I10
aI-10
aI-10
aI-10
aI-10
atp1856
sS'100021212'
p1857
((lp1858
I1
aI2
aI3
a(lp1859
I10
aI10
aI10
atp1860
sS'100121212'
p1861
((lp1862
(lp1863
I10
atp1864
sS'111121222'
p1865
((lp1866
(lp1867
I10
atp1868
sS'000112102'
p1869
((lp1870
I0
aI1
aI2
aI7
a(lp1871
I0
aI-10
aI0
aI0
atp1872
sS'111212212'
p1873
((lp1874
(lp1875
I0
atp1876
sS'101122221'
p1877
((lp1878
(lp1879
I-10
atp1880
sS'100202121'
p1881
((lp1882
I1
aI2
aI4
a(lp1883
I-10
aI10
aI10
atp1884
sS'000001020'
p1885
((lp1886
I0
aI1
aI2
aI3
aI4
aI6
aI8
a(lp1887
I0
aI10
aI0
aI10
aI10
aI-10
aI0
atp1888
sS'000001021'
p1889
((lp1890
I0
aI1
aI2
aI3
aI4
aI6
a(lp1891
I0
aI10
aI10
aI10
aI0
aI10
atp1892
sS'101112222'
p1893
((lp1894
(lp1895
I-10
atp1896
sS'111202221'
p1897
((lp1898
(lp1899
I-10
atp1900
sS'200101120'
p1901
((lp1902
I1
aI2
aI4
aI8
a(lp1903
I10
aI10
aI0
aI10
atp1904
sS'100000122'
p1905
((lp1906
I1
aI2
aI3
aI4
aI5
a(lp1907
I10
aI10
aI-10
aI-10
aI-10
atp1908
sS'000121021'
p1909
((lp1910
I0
aI1
aI2
aI6
a(lp1911
I0
aI0
aI0
aI10
atp1912
sS'000121020'
p1913
((lp1914
I0
aI1
aI2
aI6
aI8
a(lp1915
I0
aI10
aI0
aI-10
aI0
atp1916
sS'200210121'
p1917
((lp1918
(lp1919
I-10
atp1920
sS'200102101'
p1921
((lp1922
I1
aI2
aI4
aI7
a(lp1923
I-10
aI0
aI10
aI0
atp1924
sS'000211221'
p1925
((lp1926
I0
aI1
aI2
a(lp1927
I10
aI-10
aI-10
atp1928
sS'100201221'
p1929
((lp1930
I1
aI2
aI4
a(lp1931
I10
aI10
aI10
atp1932
sS'001121202'
p1933
((lp1934
I0
aI1
aI7
a(lp1935
I10
aI10
aI-10
atp1936
sS'000112210'
p1937
((lp1938
I0
aI1
aI2
aI8
a(lp1939
I-10
aI10
aI10
aI10
atp1940
sS'201102012'
p1941
((lp1942
I1
aI4
aI6
a(lp1943
I10
aI-10
aI-10
atp1944
sS'201112102'
p1945
((lp1946
I1
aI7
a(lp1947
I-10
aI10
atp1948
sS'200212101'
p1949
((lp1950
I1
aI2
aI7
a(lp1951
I-10
aI-10
aI-10
atp1952
sS'001210122'
p1953
((lp1954
I0
aI1
aI5
a(lp1955
I10
aI-10
aI-10
atp1956
sS'021212121'
p1957
((lp1958
I0
a(lp1959
I10
atp1960
sS'200110102'
p1961
((lp1962
I1
aI2
aI5
aI7
a(lp1963
I10
aI10
aI0
aI10
atp1964
sS'000120120'
p1965
((lp1966
I0
aI1
aI2
aI5
aI8
a(lp1967
I0
aI0
aI10
aI-10
aI0
atp1968
sS'000102112'
p1969
((lp1970
I0
aI1
aI2
aI4
a(lp1971
I-10
aI10
aI10
aI10
atp1972
sS'000121201'
p1973
((lp1974
I0
aI1
aI2
aI7
a(lp1975
I0
aI0
aI10
aI10
atp1976
sS'000011122'
p1977
((lp1978
I0
aI1
aI2
aI3
a(lp1979
I10
aI-10
aI10
aI-10
atp1980
sS'010112022'
p1981
((lp1982
I0
aI2
aI6
a(lp1983
I-10
aI10
aI0
atp1984
sS'011212122'
p1985
((lp1986
I0
a(lp1987
I10
atp1988
sS'210102112'
p1989
((lp1990
I2
aI4
a(lp1991
I0
aI-10
atp1992
sS'201201012'
p1993
((lp1994
I1
aI4
aI6
a(lp1995
I-10
aI0
aI10
atp1996
sS'200111221'
p1997
((lp1998
(lp1999
I10
atp2000
sS'210102012'
p2001
((lp2002
I2
aI4
aI6
a(lp2003
I10
aI0
aI-10
atp2004
sS'000101220'
p2005
((lp2006
I0
aI1
aI2
aI4
aI8
a(lp2007
I10
aI10
aI10
aI10
aI10
atp2008
sS'201120211'
p2009
((lp2010
I1
aI5
a(lp2011
I0
aI10
atp2012
sS'200010021'
p2013
((lp2014
I1
aI2
aI3
aI5
aI6
a(lp2015
I-10
aI-10
aI-10
aI-10
aI-10
atp2016
sS'000201211'
p2017
((lp2018
I0
aI1
aI2
aI4
a(lp2019
I10
aI0
aI10
aI10
atp2020
sS'001212112'
p2021
((lp2022
I0
aI1
a(lp2023
I0
aI10
atp2024
sS'001121122'
p2025
((lp2026
I0
aI1
a(lp2027
I-10
aI-10
atp2028
sS'201012012'
p2029
((lp2030
I1
aI3
aI6
a(lp2031
I0
aI-10
aI-10
atp2032
sS'201211122'
p2033
((lp2034
(lp2035
I-10
atp2036
sS'000020112'
p2037
((lp2038
I0
aI1
aI2
aI3
aI5
a(lp2039
I10
aI-10
aI-10
aI-10
aI10
atp2040
sS'201112212'
p2041
((lp2042
I1
a(lp2043
I10
atp2044
sS'200112112'
p2045
((lp2046
I1
aI2
a(lp2047
I-10
aI0
atp2048
sS'010112122'
p2049
((lp2050
I0
aI2
a(lp2051
I10
aI0
atp2052
sS'111221122'
p2053
((lp2054
(lp2055
I10
atp2056
sS'001012012'
p2057
((lp2058
I0
aI1
aI3
aI6
a(lp2059
I0
aI10
aI0
aI10
atp2060
sS'000110202'
p2061
((lp2062
I0
aI1
aI2
aI5
aI7
a(lp2063
I10
aI10
aI10
aI10
aI10
atp2064
sS'000001201'
p2065
((lp2066
I0
aI1
aI2
aI3
aI4
aI7
a(lp2067
I0
aI10
aI10
aI10
aI10
aI10
atp2068
sS'101021122'
p2069
((lp2070
(lp2071
I10
atp2072
sS'210212121'
p2073
((lp2074
(lp2075
I-10
atp2076
sS'000212112'
p2077
((lp2078
I0
aI1
aI2
a(lp2079
I0
aI0
aI0
atp2080
sS'210121122'
p2081
((lp2082
(lp2083
I-10
atp2084
sS'100102021'
p2085
((lp2086
I1
aI2
aI4
aI6
a(lp2087
I10
aI10
aI0
aI-10
atp2088
sS'100102020'
p2089
((lp2090
I1
aI2
aI4
aI6
aI8
a(lp2091
I-10
aI-10
aI-10
aI0
aI-10
atp2092
sS'110212021'
p2093
((lp2094
(lp2095
I10
atp2096
sS'000201201'
p2097
((lp2098
I0
aI1
aI2
aI4
aI7
a(lp2099
I10
aI10
aI0
aI-10
aI0
atp2100
sS'010212012'
p2101
((lp2102
I0
aI2
aI6
a(lp2103
I0
aI0
aI0
atp2104
sS'000221101'
p2105
((lp2106
I0
aI1
aI2
aI7
a(lp2107
I10
aI10
aI10
aI10
atp2108
sS'000010012'
p2109
((lp2110
I0
aI1
aI2
aI3
aI5
aI6
a(lp2111
I10
aI10
aI10
aI0
aI0
aI10
atp2112
sS'010211122'
p2113
((lp2114
I0
aI2
a(lp2115
I-10
aI10
atp2116
sS'000221011'
p2117
((lp2118
I0
aI1
aI2
aI6
a(lp2119
I10
aI10
aI10
aI10
atp2120
sS'200121021'
p2121
((lp2122
I1
aI2
aI6
a(lp2123
I0
aI0
aI0
atp2124
sS'100112202'
p2125
((lp2126
I1
aI2
aI7
a(lp2127
I-10
aI-10
aI10
atp2128
sS'200111002'
p2129
((lp2130
(lp2131
I10
atp2132
sS'001201021'
p2133
((lp2134
I0
aI1
aI4
aI6
a(lp2135
I-10
aI10
aI10
aI10
atp2136
sS'100200102'
p2137
((lp2138
I1
aI2
aI4
aI5
aI7
a(lp2139
I10
aI10
aI0
aI10
aI10
atp2140
sS'001012221'
p2141
((lp2142
(lp2143
I-10
atp2144
sS'100122211'
p2145
((lp2146
(lp2147
I10
atp2148
sS'000210102'
p2149
((lp2150
I0
aI1
aI2
aI5
aI7
a(lp2151
I0
aI0
aI0
aI-10
aI0
atp2152
sS'200002011'
p2153
((lp2154
I1
aI2
aI3
aI4
aI6
a(lp2155
I10
aI-10
aI-10
aI-10
aI-10
atp2156
sS'000110220'
p2157
((lp2158
I0
aI1
aI2
aI5
aI8
a(lp2159
I-10
aI-10
aI-10
aI10
aI-10
atp2160
sS'002111122'
p2161
((lp2162
(lp2163
I10
atp2164
sS'201102021'
p2165
((lp2166
I1
aI4
aI6
a(lp2167
I10
aI-10
aI-10
atp2168
sS'001112202'
p2169
((lp2170
I0
aI1
aI7
a(lp2171
I-10
aI10
aI10
atp2172
sS'000100212'
p2173
((lp2174
I0
aI1
aI2
aI4
aI5
a(lp2175
I10
aI10
aI10
aI10
aI10
atp2176
sS'100202001'
p2177
((lp2178
I1
aI2
aI4
aI6
aI7
a(lp2179
I-10
aI-10
aI10
aI-10
aI-10
atp2180
sS'200112021'
p2181
((lp2182
I1
aI2
aI6
a(lp2183
I-10
aI-10
aI-10
atp2184
sS'201122121'
p2185
((lp2186
I1
a(lp2187
I10
atp2188
sS'101120212'
p2189
((lp2190
(lp2191
I10
atp2192
sS'101121202'
p2193
((lp2194
I1
aI7
a(lp2195
I10
aI10
atp2196
sS'100000000'
p2197
((lp2198
I1
aI2
aI3
aI4
aI5
aI6
aI7
aI8
a(lp2199
I0
aI10
aI0
aI10
aI0
aI10
aI0
aI10
atp2200
sS'100000002'
p2201
((lp2202
I1
aI2
aI3
aI4
aI5
aI6
aI7
a(lp2203
I10
aI10
aI10
aI0
aI10
aI10
aI10
atp2204
sS'000112212'
p2205
((lp2206
I0
aI1
aI2
a(lp2207
I10
aI10
aI10
atp2208
sS'201110202'
p2209
((lp2210
I1
aI5
aI7
a(lp2211
I10
aI10
aI10
atp2212
sS'000001221'
p2213
((lp2214
I0
aI1
aI2
aI3
aI4
a(lp2215
I10
aI-10
aI10
aI10
aI10
atp2216
sS'000122101'
p2217
((lp2218
I0
aI1
aI2
aI7
a(lp2219
I10
aI10
aI10
aI10
atp2220
sS'200001112'
p2221
((lp2222
(lp2223
I10
atp2224
sS'000100102'
p2225
((lp2226
I0
aI1
aI2
aI4
aI5
aI7
a(lp2227
I0
aI10
aI10
aI10
aI10
aI10
atp2228
sS'000010102'
p2229
((lp2230
I0
aI1
aI2
aI3
aI5
aI7
a(lp2231
I10
aI10
aI10
aI0
aI0
aI10
atp2232
sS'100221121'
p2233
((lp2234
I1
aI2
a(lp2235
I10
aI10
atp2236
sS'000012102'
p2237
((lp2238
I0
aI1
aI2
aI3
aI7
a(lp2239
I0
aI0
aI0
aI-10
aI0
atp2240
sS'000000012'
p2241
((lp2242
I0
aI1
aI2
aI3
aI4
aI5
aI6
a(lp2243
I10
aI0
aI0
aI0
aI0
aI10
aI10
atp2244
sS'000000010'
p2245
((lp2246
I0
aI1
aI2
aI3
aI4
aI5
aI6
aI8
a(lp2247
I0
aI10
aI10
aI10
aI10
aI10
aI10
aI10
atp2248
sS'011221122'
p2249
((lp2250
I0
a(lp2251
I10
atp2252
sS'100110022'
p2253
((lp2254
I1
aI2
aI5
aI6
a(lp2255
I-10
aI10
aI-10
aI10
atp2256
sS'201102112'
p2257
((lp2258
I1
aI4
a(lp2259
I-10
aI-10
atp2260
sS'100101202'
p2261
((lp2262
I1
aI2
aI4
aI7
a(lp2263
I10
aI10
aI10
aI10
atp2264
sS'201010122'
p2265
((lp2266
I1
aI3
aI5
a(lp2267
I-10
aI-10
aI-10
atp2268
sS'210112021'
p2269
((lp2270
I2
aI6
a(lp2271
I0
aI-10
atp2272
sS'001110222'
p2273
((lp2274
I0
aI1
aI5
a(lp2275
I-10
aI10
aI10
atp2276
sS'201121021'
p2277
((lp2278
I1
aI6
a(lp2279
I0
aI10
atp2280
sS'100102002'
p2281
((lp2282
I1
aI2
aI4
aI6
aI7
a(lp2283
I10
aI10
aI-10
aI10
aI10
atp2284
sS'001012122'
p2285
((lp2286
I0
aI1
aI3
a(lp2287
I10
aI10
aI-10
atp2288
sS'200100102'
p2289
((lp2290
I1
aI2
aI4
aI5
aI7
a(lp2291
I-10
aI-10
aI0
aI-10
aI-10
atp2292
sS'001211122'
p2293
((lp2294
I0
aI1
a(lp2295
I-10
aI-10
atp2296
sS'200001102'
p2297
((lp2298
I1
aI2
aI3
aI4
aI7
a(lp2299
I-10
aI-10
aI-10
aI10
aI10
atp2300
sS'000102012'
p2301
((lp2302
I0
aI1
aI2
aI4
aI6
a(lp2303
I10
aI10
aI10
aI0
aI-10
atp2304
sS'000102010'
p2305
((lp2306
I0
aI1
aI2
aI4
aI6
aI8
a(lp2307
I10
aI10
aI10
aI10
aI10
aI10
atp2308
sS'200110210'
p2309
((lp2310
I1
aI2
aI5
aI8
a(lp2311
I10
aI-10
aI-10
aI10
atp2312
sS'200110212'
p2313
((lp2314
I1
aI2
aI5
a(lp2315
I-10
aI10
aI10
atp2316
sS'000001012'
p2317
((lp2318
I0
aI1
aI2
aI3
aI4
aI6
a(lp2319
I10
aI10
aI10
aI10
aI10
aI10
atp2320
sS'200010012'
p2321
((lp2322
I1
aI2
aI3
aI5
aI6
a(lp2323
I0
aI0
aI0
aI10
aI0
atp2324
sS'001102021'
p2325
((lp2326
I0
aI1
aI4
aI6
a(lp2327
I10
aI-10
aI10
aI-10
atp2328
sS'100100020'
p2329
((lp2330
I1
aI2
aI4
aI5
aI6
aI8
a(lp2331
I0
aI10
aI10
aI0
aI10
aI10
atp2332
sS'100100022'
p2333
((lp2334
I1
aI2
aI4
aI5
aI6
a(lp2335
I10
aI-10
aI-10
aI-10
aI-10
atp2336
sS'100112022'
p2337
((lp2338
I1
aI2
aI6
a(lp2339
I-10
aI-10
aI-10
atp2340
sS'100112020'
p2341
((lp2342
I1
aI2
aI6
aI8
a(lp2343
I10
aI10
aI-10
aI-10
atp2344
sS'201201112'
p2345
((lp2346
(lp2347
I10
atp2348
sS'000201102'
p2349
((lp2350
I0
aI1
aI2
aI4
aI7
a(lp2351
I10
aI10
aI10
aI-10
aI10
atp2352
sS'100010202'
p2353
((lp2354
I1
aI2
aI3
aI5
aI7
a(lp2355
I0
aI-10
aI10
aI10
aI0
atp2356
sS'100221012'
p2357
((lp2358
I1
aI2
aI6
a(lp2359
I10
aI10
aI10
atp2360
sS'000122211'
p2361
((lp2362
I0
aI1
aI2
a(lp2363
I10
aI10
aI10
atp2364
sS'001212012'
p2365
((lp2366
I0
aI1
aI6
a(lp2367
I0
aI0
aI0
atp2368
sS'201012112'
p2369
((lp2370
I1
aI3
a(lp2371
I-10
aI0
atp2372
sS'102021012'
p2373
((lp2374
I1
aI3
aI6
a(lp2375
I10
aI10
aI10
atp2376
sS'000101002'
p2377
((lp2378
I0
aI1
aI2
aI4
aI6
aI7
a(lp2379
I10
aI10
aI10
aI10
aI10
aI10
atp2380
sS'200121210'
p2381
((lp2382
I1
aI2
aI8
a(lp2383
I-10
aI-10
aI-10
atp2384
sS'200121211'
p2385
((lp2386
I1
aI2
a(lp2387
I0
aI-10
atp2388
sS'101010222'
p2389
((lp2390
I1
aI3
aI5
a(lp2391
I-10
aI-10
aI-10
atp2392
sS'001020112'
p2393
((lp2394
I0
aI1
aI3
aI5
a(lp2395
I-10
aI10
aI10
aI10
atp2396
sS'200101212'
p2397
((lp2398
I1
aI2
aI4
a(lp2399
I-10
aI-10
aI10
atp2400
sS'100212211'
p2401
((lp2402
(lp2403
I10
atp2404
sS'200101210'
p2405
((lp2406
I1
aI2
aI4
aI8
a(lp2407
I10
aI-10
aI-10
aI10
atp2408
sS'201101221'
p2409
((lp2410
I1
aI4
a(lp2411
I10
aI10
atp2412
sS'100120122'
p2413
((lp2414
I1
aI2
aI5
a(lp2415
I10
aI10
aI-10
atp2416
sS'100120120'
p2417
((lp2418
I1
aI2
aI5
aI8
a(lp2419
I10
aI0
aI10
aI10
atp2420
sS'100202211'
p2421
((lp2422
I1
aI2
aI4
a(lp2423
I10
aI-10
aI10
atp2424
sS'011221221'
p2425
((lp2426
I0
a(lp2427
I10
atp2428
sS'100122001'
p2429
((lp2430
I1
aI2
aI6
aI7
a(lp2431
I10
aI10
aI10
aI0
atp2432
sS'200200101'
p2433
((lp2434
I1
aI2
aI4
aI5
aI7
a(lp2435
I-10
aI-10
aI-10
aI-10
aI10
atp2436
sS'001221012'
p2437
((lp2438
I0
aI1
aI6
a(lp2439
I10
aI-10
aI10
atp2440
sS'201020112'
p2441
((lp2442
(lp2443
I-10
atp2444
sS'200000121'
p2445
((lp2446
I1
aI2
aI3
aI4
aI5
a(lp2447
I-10
aI-10
aI0
aI-10
aI-10
atp2448
sS'200102001'
p2449
((lp2450
I1
aI2
aI4
aI6
aI7
a(lp2451
I10
aI-10
aI-10
aI-10
aI-10
atp2452
sS'100012122'
p2453
((lp2454
I1
aI2
aI3
a(lp2455
I0
aI10
aI-10
atp2456
sS'100001202'
p2457
((lp2458
I1
aI2
aI3
aI4
aI7
a(lp2459
I10
aI0
aI10
aI10
aI10
atp2460
sS'001210212'
p2461
((lp2462
I0
aI1
aI5
a(lp2463
I0
aI0
aI0
atp2464
sS'000212011'
p2465
((lp2466
I0
aI1
aI2
aI6
a(lp2467
I10
aI10
aI10
aI10
atp2468
sS'000001120'
p2469
((lp2470
I0
aI1
aI2
aI3
aI4
aI8
a(lp2471
I0
aI-10
aI0
aI10
aI10
aI-10
atp2472
sS'000001122'
p2473
((lp2474
I0
aI1
aI2
aI3
aI4
a(lp2475
I-10
aI-10
aI-10
aI-10
aI-10
atp2476
sS'201201021'
p2477
((lp2478
(lp2479
I-10
atp2480
sS'100211122'
p2481
((lp2482
I1
aI2
a(lp2483
I-10
aI10
atp2484
sS'100210021'
p2485
((lp2486
(lp2487
I10
atp2488
sS'010212121'
p2489
((lp2490
I0
aI2
a(lp2491
I-10
aI10
atp2492
sS'000120121'
p2493
((lp2494
I0
aI1
aI2
aI5
a(lp2495
I0
aI0
aI0
aI10
atp2496
sS'110121022'
p2497
((lp2498
(lp2499
I10
atp2500
sS'101102022'
p2501
((lp2502
I1
aI4
aI6
a(lp2503
I10
aI-10
aI10
atp2504
sS'000002001'
p2505
((lp2506
I0
aI1
aI2
aI3
aI4
aI6
aI7
a(lp2507
I0
aI-10
aI-10
aI0
aI-10
aI-10
aI10
atp2508
sS'100101022'
p2509
((lp2510
I1
aI2
aI4
aI6
a(lp2511
I-10
aI10
aI10
aI10
atp2512
sS'000120210'
p2513
((lp2514
I0
aI1
aI2
aI5
aI8
a(lp2515
I10
aI10
aI10
aI-10
aI10
atp2516
sS'200210112'
p2517
((lp2518
I1
aI2
aI5
a(lp2519
I0
aI0
aI10
atp2520
sS'200121102'
p2521
((lp2522
(lp2523
I-10
atp2524
sS'001122012'
p2525
((lp2526
I0
aI1
aI6
a(lp2527
I10
aI10
aI-10
atp2528
sS'200010121'
p2529
((lp2530
I1
aI2
aI3
aI5
a(lp2531
I-10
aI0
aI-10
aI-10
atp2532
sS'200002111'
p2533
((lp2534
I1
aI2
aI3
aI4
a(lp2535
I-10
aI10
aI10
aI10
atp2536
sS'000011022'
p2537
((lp2538
I0
aI1
aI2
aI3
aI6
a(lp2539
I-10
aI10
aI-10
aI10
aI-10
atp2540
sS'101211022'
p2541
((lp2542
I1
aI6
a(lp2543
I-10
aI10
atp2544
sS'100012012'
p2545
((lp2546
I1
aI2
aI3
aI6
a(lp2547
I10
aI10
aI0
aI10
atp2548
sS'100102210'
p2549
((lp2550
(lp2551
I10
atp2552
sS'100110202'
p2553
((lp2554
I1
aI2
aI5
aI7
a(lp2555
I10
aI10
aI10
aI10
atp2556
sS'210212011'
p2557
((lp2558
(lp2559
I10
atp2560
sS'200000010'
p2561
((lp2562
I1
aI2
aI3
aI4
aI5
aI6
aI8
a(lp2563
I0
aI0
aI0
aI0
aI0
aI0
aI0
atp2564
sS'200000011'
p2565
((lp2566
I1
aI2
aI3
aI4
aI5
aI6
a(lp2567
I0
aI10
aI10
aI10
aI10
aI10
atp2568
sS'101122102'
p2569
((lp2570
(lp2571
I10
atp2572
sS'001101222'
p2573
((lp2574
I0
aI1
aI4
a(lp2575
I-10
aI10
aI10
atp2576
sS'100212102'
p2577
((lp2578
I1
aI2
aI7
a(lp2579
I0
aI10
aI0
atp2580
sS'101020102'
p2581
((lp2582
(lp2583
I10
atp2584
sS'201112021'
p2585
((lp2586
I1
aI6
a(lp2587
I-10
aI-10
atp2588
sS'110212012'
p2589
((lp2590
I2
aI6
a(lp2591
I0
aI0
atp2592
sS'000010122'
p2593
((lp2594
I0
aI1
aI2
aI3
aI5
a(lp2595
I-10
aI10
aI-10
aI-10
aI-10
atp2596
sS'110112222'
p2597
((lp2598
(lp2599
I-10
atp2600
sS'001102212'
p2601
((lp2602
I0
aI1
aI4
a(lp2603
I10
aI10
aI10
atp2604
sS'000011202'
p2605
((lp2606
I0
aI1
aI2
aI3
aI7
a(lp2607
I10
aI10
aI0
aI10
aI0
atp2608
sS'200001012'
p2609
((lp2610
I1
aI2
aI3
aI4
aI6
a(lp2611
I-10
aI-10
aI-10
aI10
aI10
atp2612
sS'200001010'
p2613
((lp2614
I1
aI2
aI3
aI4
aI6
aI8
a(lp2615
I10
aI10
aI10
aI10
aI0
aI10
atp2616
sS'100211220'
p2617
((lp2618
I1
aI2
aI8
a(lp2619
I10
aI10
aI10
atp2620
sS'110102212'
p2621
((lp2622
(lp2623
I10
atp2624
sS'200011021'
p2625
((lp2626
I1
aI2
aI3
aI6
a(lp2627
I10
aI10
aI-10
aI10
atp2628
sS'010212120'
p2629
((lp2630
I0
aI2
aI8
a(lp2631
I10
aI-10
aI-10
atp2632
sS'200221111'
p2633
((lp2634
(lp2635
I10
atp2636
sS'000112122'
p2637
((lp2638
I0
aI1
aI2
a(lp2639
I-10
aI0
aI-10
atp2640
sS'100220121'
p2641
((lp2642
I1
aI2
aI5
a(lp2643
I-10
aI10
aI10
atp2644
sS'200122011'
p2645
((lp2646
I1
aI2
aI6
a(lp2647
I10
aI-10
aI-10
atp2648
sS'100121020'
p2649
((lp2650
I1
aI2
aI6
aI8
a(lp2651
I0
aI10
aI10
aI10
atp2652
sS'100121022'
p2653
((lp2654
I1
aI2
aI6
a(lp2655
I10
aI-10
aI-10
atp2656
sS'100102102'
p2657
((lp2658
I1
aI2
aI4
aI7
a(lp2659
I10
aI10
aI10
aI10
atp2660
sS'001112022'
p2661
((lp2662
I0
aI1
aI6
a(lp2663
I-10
aI10
aI-10
atp2664
sS'000000112'
p2665
((lp2666
I0
aI1
aI2
aI3
aI4
aI5
a(lp2667
I10
aI10
aI10
aI10
aI10
aI10
atp2668
sS'200012121'
p2669
((lp2670
I1
aI2
aI3
a(lp2671
I-10
aI-10
aI-10
atp2672
sS'100221021'
p2673
((lp2674
I1
aI2
aI6
a(lp2675
I10
aI10
aI10
atp2676
sS'200101002'
p2677
((lp2678
I1
aI2
aI4
aI6
aI7
a(lp2679
I-10
aI-10
aI10
aI-10
aI-10
atp2680
sS'000211122'
p2681
((lp2682
I0
aI1
aI2
a(lp2683
I-10
aI-10
aI-10
atp2684
sS'010102021'
p2685
((lp2686
I0
aI2
aI4
aI6
a(lp2687
I10
aI0
aI10
aI-10
atp2688
sS'200212111'
p2689
((lp2690
I1
aI2
a(lp2691
I-10
aI10
atp2692
sS'001211221'
p2693
((lp2694
I0
aI1
a(lp2695
I-10
aI10
atp2696
sS'100121202'
p2697
((lp2698
I1
aI2
aI7
a(lp2699
I10
aI10
aI10
atp2700
sS'111202212'
p2701
((lp2702
I4
a(lp2703
I0
atp2704
sS'200100021'
p2705
((lp2706
I1
aI2
aI4
aI5
aI6
a(lp2707
I0
aI0
aI-10
aI0
aI0
atp2708
sS'200211120'
p2709
((lp2710
(lp2711
I-10
atp2712
sS'010102120'
p2713
((lp2714
I0
aI2
aI4
aI8
a(lp2715
I10
aI0
aI10
aI10
atp2716
sS'211211212'
p2717
((lp2718
(lp2719
I0
atp2720
sS'200102110'
p2721
((lp2722
I1
aI2
aI4
aI8
a(lp2723
I-10
aI0
aI-10
aI-10
atp2724
sS'200102112'
p2725
((lp2726
I1
aI2
aI4
a(lp2727
I-10
aI-10
aI-10
atp2728
sS'010221121'
p2729
((lp2730
I0
aI2
a(lp2731
I-10
aI10
atp2732
sS'110212120'
p2733
((lp2734
I2
aI8
a(lp2735
I10
aI10
atp2736
sS'110212122'
p2737
((lp2738
I2
a(lp2739
I10
atp2740
sS'110201212'
p2741
((lp2742
(lp2743
I10
atp2744
sS'101021212'
p2745
((lp2746
I1
aI3
a(lp2747
I10
aI10
atp2748
sS'100002102'
p2749
((lp2750
I1
aI2
aI3
aI4
aI7
a(lp2751
I0
aI10
aI10
aI0
aI10
atp2752
sS'200120112'
p2753
((lp2754
(lp2755
I-10
atp2756
sS'100221112'
p2757
((lp2758
(lp2759
I10
atp2760
sS'000101122'
p2761
((lp2762
I0
aI1
aI2
aI4
a(lp2763
I10
aI-10
aI10
aI-10
atp2764
sS'000100021'
p2765
((lp2766
I0
aI1
aI2
aI4
aI5
aI6
a(lp2767
I0
aI10
aI10
aI0
aI0
aI10
atp2768
sS'110211220'
p2769
((lp2770
(lp2771
I10
atp2772
sS'100100202'
p2773
((lp2774
I1
aI2
aI4
aI5
aI7
a(lp2775
I10
aI10
aI10
aI10
aI10
atp2776
sS'001201212'
p2777
((lp2778
I0
aI1
aI4
a(lp2779
I0
aI0
aI0
atp2780
sS'100010022'
p2781
((lp2782
I1
aI2
aI3
aI5
aI6
a(lp2783
I0
aI-10
aI-10
aI-10
aI-10
atp2784
sS'200112201'
p2785
((lp2786
I1
aI2
aI7
a(lp2787
I-10
aI-10
aI-10
atp2788
sS'111212122'
p2789
((lp2790
(lp2791
I10
atp2792
sS'102112122'
p2793
((lp2794
I1
a(lp2795
I0
atp2796
sS'000121212'
p2797
((lp2798
I0
aI1
aI2
a(lp2799
I10
aI-10
aI-10
atp2800
sS'101201122'
p2801
((lp2802
(lp2803
I10
atp2804
sS'000102121'
p2805
((lp2806
I0
aI1
aI2
aI4
a(lp2807
I0
aI10
aI0
aI10
atp2808
sS'000102120'
p2809
((lp2810
I0
aI1
aI2
aI4
aI8
a(lp2811
I0
aI0
aI10
aI-10
aI0
atp2812
sS'001201012'
p2813
((lp2814
I0
aI1
aI4
aI6
a(lp2815
I10
aI10
aI10
aI0
atp2816
sS'110122122'
p2817
((lp2818
I2
a(lp2819
I10
atp2820
sS'001221112'
p2821
((lp2822
(lp2823
I10
atp2824
sS'200110221'
p2825
((lp2826
I1
aI2
aI5
a(lp2827
I-10
aI-10
aI10
atp2828
sS'000101221'
p2829
((lp2830
I0
aI1
aI2
aI4
a(lp2831
I10
aI10
aI10
aI10
atp2832
sS'000002101'
p2833
((lp2834
I0
aI1
aI2
aI3
aI4
aI7
a(lp2835
I0
aI10
aI0
aI-10
aI10
aI10
atp2836
sS'200211012'
p2837
((lp2838
I1
aI2
aI6
a(lp2839
I0
aI0
aI10
atp2840
sS'210102021'
p2841
((lp2842
I2
aI4
aI6
a(lp2843
I10
aI-10
aI0
atp2844
sS'201211012'
p2845
((lp2846
I1
aI6
a(lp2847
I10
aI0
atp2848
sS'100201122'
p2849
((lp2850
I1
aI2
aI4
a(lp2851
I10
aI10
aI-10
atp2852
sS'202112112'
p2853
((lp2854
I1
a(lp2855
I0
atp2856
sS'100201120'
p2857
((lp2858
I1
aI2
aI4
aI8
a(lp2859
I10
aI10
aI10
aI10
atp2860
sS'001122112'
p2861
((lp2862
I0
aI1
a(lp2863
I-10
aI10
atp2864
sS'100210201'
p2865
((lp2866
(lp2867
I10
atp2868
sS'210102211'
p2869
((lp2870
(lp2871
I10
atp2872
sS'201012021'
p2873
((lp2874
I1
aI3
aI6
a(lp2875
I-10
aI-10
aI-10
atp2876
sS'010212021'
p2877
((lp2878
I0
aI2
aI6
a(lp2879
I10
aI-10
aI-10
atp2880
sS'100121221'
p2881
((lp2882
I1
aI2
a(lp2883
I0
aI10
atp2884
sS'001212102'
p2885
((lp2886
I0
aI1
aI7
a(lp2887
I10
aI0
aI0
atp2888
sS'210202111'
p2889
((lp2890
(lp2891
I10
atp2892
sS'000120211'
p2893
((lp2894
I0
aI1
aI2
aI5
a(lp2895
I10
aI10
aI10
aI10
atp2896
sS'100120012'
p2897
((lp2898
(lp2899
I10
atp2900
sS'100200112'
p2901
((lp2902
I1
aI2
aI4
aI5
a(lp2903
I10
aI10
aI10
aI10
atp2904
sS'200011212'
p2905
((lp2906
I1
aI2
aI3
a(lp2907
I-10
aI0
aI10
atp2908
sS'000121002'
p2909
((lp2910
I0
aI1
aI2
aI6
aI7
a(lp2911
I10
aI-10
aI-10
aI-10
aI-10
atp2912
sS'200112102'
p2913
((lp2914
I1
aI2
aI7
a(lp2915
I0
aI-10
aI-10
atp2916
sS'100200021'
p2917
((lp2918
I1
aI2
aI4
aI5
aI6
a(lp2919
I10
aI10
aI10
aI10
aI10
atp2920
sS'001012021'
p2921
((lp2922
I0
aI1
aI3
aI6
a(lp2923
I-10
aI10
aI10
aI-10
atp2924
sS'011221212'
p2925
((lp2926
I0
a(lp2927
I10
atp2928
sS'000210021'
p2929
((lp2930
I0
aI1
aI2
aI5
aI6
a(lp2931
I10
aI-10
aI-10
aI-10
aI-10
atp2932
sS'000110212'
p2933
((lp2934
I0
aI1
aI2
aI5
a(lp2935
I10
aI10
aI10
aI10
atp2936
sS'210101122'
p2937
((lp2938
I2
aI4
a(lp2939
I10
aI-10
atp2940
sS'001011022'
p2941
((lp2942
I0
aI1
aI3
aI6
a(lp2943
I10
aI-10
aI-10
aI10
atp2944
sS'000212121'
p2945
((lp2946
I0
aI1
aI2
a(lp2947
I10
aI-10
aI-10
atp2948
sS'200000112'
p2949
((lp2950
I1
aI2
aI3
aI4
aI5
a(lp2951
I-10
aI-10
aI-10
aI0
aI10
atp2952
sS'011212221'
p2953
((lp2954
(lp2955
I-10
atp2956
sS'210212112'
p2957
((lp2958
I2
a(lp2959
I0
atp2960
sS'201120121'
p2961
((lp2962
I1
aI5
a(lp2963
I0
aI10
atp2964
sS'001120212'
p2965
((lp2966
I0
aI1
aI5
a(lp2967
I10
aI10
aI-10
atp2968
sS'200100010'
p2969
((lp2970
I1
aI2
aI4
aI5
aI6
aI8
a(lp2971
I10
aI0
aI0
aI10
aI0
aI0
atp2972
sS'000101212'
p2973
((lp2974
I0
aI1
aI2
aI4
a(lp2975
I10
aI10
aI10
aI10
atp2976
sS'100210102'
p2977
((lp2978
I1
aI2
aI5
aI7
a(lp2979
I10
aI0
aI10
aI10
atp2980
sS'010121122'
p2981
((lp2982
I0
aI2
a(lp2983
I-10
aI10
atp2984
sS'000010002'
p2985
((lp2986
I0
aI1
aI2
aI3
aI5
aI6
aI7
a(lp2987
I0
aI0
aI0
aI0
aI0
aI0
aI0
atp2988
sS'000111202'
p2989
((lp2990
(lp2991
I10
atp2992
sS'101221221'
p2993
((lp2994
I1
a(lp2995
I10
atp2996
sS'001202112'
p2997
((lp2998
I0
aI1
aI4
a(lp2999
I10
aI-10
aI0
atp3000
sS'200011102'
p3001
((lp3002
I1
aI2
aI3
aI7
a(lp3003
I10
aI10
aI10
aI10
atp3004
sS'200122101'
p3005
((lp3006
I1
aI2
aI7
a(lp3007
I10
aI-10
aI-10
atp3008
sS'010102212'
p3009
((lp3010
I0
aI2
aI4
a(lp3011
I10
aI10
aI10
atp3012
sS'000120021'
p3013
((lp3014
I0
aI1
aI2
aI5
aI6
a(lp3015
I0
aI0
aI0
aI0
aI0
atp3016
sS'001201221'
p3017
((lp3018
I0
aI1
aI4
a(lp3019
I10
aI-10
aI-10
atp3020
sS'000210112'
p3021
((lp3022
I0
aI1
aI2
aI5
a(lp3023
I10
aI10
aI10
aI0
atp3024
sS'100000212'
p3025
((lp3026
I1
aI2
aI3
aI4
aI5
a(lp3027
I10
aI0
aI10
aI0
aI10
atp3028
sS'001122021'
p3029
((lp3030
I0
aI1
aI6
a(lp3031
I-10
aI10
aI10
atp3032
sS'200221011'
p3033
((lp3034
I1
aI2
aI6
a(lp3035
I10
aI10
aI10
atp3036
sS'000221211'
p3037
((lp3038
I0
aI1
aI2
a(lp3039
I0
aI10
aI0
atp3040
sS'000211102'
p3041
((lp3042
I0
aI1
aI2
aI7
a(lp3043
I10
aI10
aI10
aI-10
atp3044
sS'100012021'
p3045
((lp3046
(lp3047
I10
atp3048
sS'201021012'
p3049
((lp3050
(lp3051
I-10
atp3052
sS'010212211'
p3053
((lp3054
(lp3055
I10
atp3056
sS'100102221'
p3057
((lp3058
(lp3059
I-10
atp3060
s.